Certificate:
    Data:
        Version: 3 (0x2)
        Serial Number:
            ae:65:aa:39:cf:f0:57:22:ae:83:75:d2:d1:0e:33:5e
        Signature Algorithm: sha256WithRSAEncryption
        Issuer: CN=Easy-RSA CA
        Validity
            Not Before: Jan  9 11:54:24 2025 GMT
            Not After : Jan  7 11:54:24 2035 GMT
        Subject: CN=server
        Subject Public Key Info:
            Public Key Algorithm: rsaEncryption
                Public-Key: (1024 bit)
                Modulus:
                    00:c2:1b:ae:fa:90:a8:9e:7b:f8:04:7d:24:51:5f:
                    7f:45:07:32:d7:06:9a:98:92:99:90:6c:a4:86:f2:
                    37:e1:d9:9e:26:5d:90:4b:6c:6d:3f:bc:a6:12:1a:
                    85:36:72:4e:6a:0f:ea:23:67:b1:b5:70:e5:5d:0b:
                    e0:7e:a5:70:82:a3:9b:68:72:42:dd:78:55:58:5a:
                    93:dd:69:68:c1:67:e1:8b:f5:59:f9:1e:1a:9b:f0:
                    55:a8:42:4b:cc:6d:75:0e:3b:d9:45:ed:6e:10:74:
                    c6:3f:74:3a:f7:29:8a:24:d3:81:05:72:1c:b0:07:
                    62:84:c9:71:3a:9f:96:1c:7d
                Exponent: 65537 (0x10001)
        X509v3 extensions:
            X509v3 Basic Constraints: 
                CA:FALSE
            X509v3 Subject Key Identifier: 
                9B:5E:30:8F:23:9B:DD:F2:D9:D9:0E:AE:9F:B6:62:31:65:E6:A0:31
            X509v3 Authority Key Identifier: 
                keyid:95:BA:3A:95:65:BD:00:29:76:85:99:8B:1D:ED:40:45:4A:F6:40:1E
                DirName:/CN=Easy-RSA CA
                serial:68:F1:86:AA:52:D7:FF:A9:95:A6:4B:0B:FA:B3:B1:8B:15:C0:D1:50
            X509v3 Extended Key Usage: 
                TLS Web Server Authentication
            X509v3 Key Usage: 
                Digital Signature, Key Encipherment
            X509v3 Subject Alternative Name: 
                DNS:server
    Signature Algorithm: sha256WithRSAEncryption
    Signature Value:
        a0:0b:3b:b4:55:95:9d:6c:06:e6:71:2d:e0:9a:ba:db:20:5a:
        06:99:de:73:6d:a4:65:32:be:10:17:fa:fc:0f:62:a5:ee:97:
        cc:36:22:57:70:7c:08:0f:15:93:68:51:90:c4:bd:6b:40:cc:
        1a:96:13:69:b5:74:12:8a:30:1a:aa:fc:e1:59:07:ce:1e:27:
        b2:97:87:63:ca:a4:0e:b8:bf:c6:d3:9c:75:33:70:55:87:88:
        fc:08:83:4a:78:bc:c5:8e:f2:61:20:99:8d:e2:e0:89:27:3d:
        50:3d:98:08:23:fb:c7:a0:a7:43:b0:22:2b:03:3f:2c:57:e6:
        74:c0
-----BEGIN CERTIFICATE-----
MIICYzCCAcygAwIBAgIRAK5lqjnP8FciroN10tEOM14wDQYJKoZIhvcNAQELBQAw
FjEUMBIGA1UEAwwLRWFzeS1SU0EgQ0EwHhcNMjUwMTA5MTE1NDI0WhcNMzUwMTA3
MTE1NDI0WjARMQ8wDQYDVQQDDAZzZXJ2ZXIwgZ8wDQYJKoZIhvcNAQEBBQADgY0A
MIGJAoGBAMIbrvqQqJ57+AR9JFFff0UHMtcGmpiSmZBspIbyN+HZniZdkEtsbT+8
phIahTZyTmoP6iNnsbVw5V0L4H6lcIKjm2hyQt14VVhak91paMFn4Yv1WfkeGpvw
VahCS8xtdQ472UXtbhB0xj90OvcpiiTTgQVyHLAHYoTJcTqflhx9AgMBAAGjgbUw
gbIwCQYDVR0TBAIwADAdBgNVHQ4EFgQUm14wjyOb3fLZ2Q6un7ZiMWXmoDEwUQYD
VR0jBEowSIAUlbo6lWW9ACl2hZmLHe1ARUr2QB6hGqQYMBYxFDASBgNVBAMMC0Vh
c3ktUlNBIENBghRo8YaqUtf/qZWmSwv6s7GLFcDRUDATBgNVHSUEDDAKBggrBgEF
BQcDATALBgNVHQ8EBAMCBaAwEQYDVR0RBAowCIIGc2VydmVyMA0GCSqGSIb3DQEB
CwUAA4GBAKALO7RVlZ1sBuZxLeCautsgWgaZ3nNtpGUyvhAX+vwPYqXul8w2Ildw
fAgPFZNoUZDEvWtAzBqWE2m1dBKKMBqq/OFZB84eJ7KXh2PKpA64v8bTnHUzcFWH
iPwIg0p4vMWO8mEgmY3i4IknPVA9mAgj+8egp0OwIisDPyxX5nTA
-----END CERTIFICATE-----
